ccopy_reg
_reconstructor
p0
(cpacman.model.routing_tables.multicast_routing_table
MulticastRoutingTable
p1
c__builtin__
object
p2
Ntp3
Rp4
(dp5
S'_multicast_routing_entries_by_key_combo_mask'
p6
ccollections
OrderedDict
p7
((lp8
(lp9
(L18L
L4294967295L
tp10
ag0
(cspinn_machine.multicast_routing_entry
MulticastRoutingEntry
p11
g2
Ntp12
Rp13
(dp14
S'_processor_ids'
p15
c__builtin__
set
p16
((lp17
I15
atp18
Rp19
sS'_defaultable'
p20
I00
sS'_link_ids'
p21
g16
((lp22
tp23
Rp24
sS'_mask'
p25
L4294967295L
sS'_key_mask_combo'
p26
L18L
sbaa(lp27
(L8L
L4294967295L
tp28
ag0
(g11
g2
Ntp29
Rp30
(dp31
g15
g16
((lp32
I5
atp33
Rp34
sg20
I00
sg21
g16
((lp35
tp36
Rp37
sg25
L4294967295L
sg26
L8L
sbaa(lp38
(L7L
L4294967295L
tp39
ag0
(g11
g2
Ntp40
Rp41
(dp42
g15
g16
((lp43
I4
atp44
Rp45
sg20
I00
sg21
g16
((lp46
tp47
Rp48
sg25
L4294967295L
sg26
L7L
sbaa(lp49
(L16L
L4294967295L
tp50
ag0
(g11
g2
Ntp51
Rp52
(dp53
g15
g16
((lp54
I13
atp55
Rp56
sg20
I00
sg21
g16
((lp57
tp58
Rp59
sg25
L4294967295L
sg26
L16L
sbaa(lp60
(L30L
L4294967295L
tp61
ag0
(g11
g2
Ntp62
Rp63
(dp64
g15
g16
((lp65
I2
atp66
Rp67
sg20
I00
sg21
g16
((lp68
tp69
Rp70
sg25
L4294967295L
sg26
L30L
sbaa(lp71
(L33L
L4294967295L
tp72
ag0
(g11
g2
Ntp73
Rp74
(dp75
g15
g16
((lp76
I8
atp77
Rp78
sg20
I00
sg21
g16
((lp79
tp80
Rp81
sg25
L4294967295L
sg26
L33L
sbaa(lp82
(L37L
L4294967295L
tp83
ag0
(g11
g2
Ntp84
Rp85
(dp86
g15
g16
((lp87
I16
atp88
Rp89
sg20
I00
sg21
g16
((lp90
tp91
Rp92
sg25
L4294967295L
sg26
L37L
sbaa(lp93
(L35L
L4294967295L
tp94
ag0
(g11
g2
Ntp95
Rp96
(dp97
g15
g16
((lp98
I12
atp99
Rp100
sg20
I00
sg21
g16
((lp101
tp102
Rp103
sg25
L4294967295L
sg26
L35L
sbaa(lp104
(L6L
L4294967295L
tp105
ag0
(g11
g2
Ntp106
Rp107
(dp108
g15
g16
((lp109
I3
atp110
Rp111
sg20
I00
sg21
g16
((lp112
tp113
Rp114
sg25
L4294967295L
sg26
L6L
sbaa(lp115
(L19L
L4294967295L
tp116
ag0
(g11
g2
Ntp117
Rp118
(dp119
g15
g16
((lp120
I16
atp121
Rp122
sg20
I00
sg21
g16
((lp123
tp124
Rp125
sg25
L4294967295L
sg26
L19L
sbaa(lp126
(L5L
L4294967295L
tp127
ag0
(g11
g2
Ntp128
Rp129
(dp130
g15
g16
((lp131
I2
atp132
Rp133
sg20
I00
sg21
g16
((lp134
tp135
Rp136
sg25
L4294967295L
sg26
L5L
sbaa(lp137
(L4L
L4294967295L
tp138
ag0
(g11
g2
Ntp139
Rp140
(dp141
g15
g16
((lp142
I1
atp143
Rp144
sg20
I00
sg21
g16
((lp145
tp146
Rp147
sg25
L4294967295L
sg26
L4L
sbaa(lp148
(L32L
L4294967295L
tp149
ag0
(g11
g2
Ntp150
Rp151
(dp152
g15
g16
((lp153
I6
atp154
Rp155
sg20
I00
sg21
g16
((lp156
tp157
Rp158
sg25
L4294967295L
sg26
L32L
sbaa(lp159
(L15L
L4294967295L
tp160
ag0
(g11
g2
Ntp161
Rp162
(dp163
g15
g16
((lp164
I12
atp165
Rp166
sg20
I00
sg21
g16
((lp167
tp168
Rp169
sg25
L4294967295L
sg26
L15L
sbaa(lp170
(L34L
L4294967295L
tp171
ag0
(g11
g2
Ntp172
Rp173
(dp174
g15
g16
((lp175
I10
atp176
Rp177
sg20
I00
sg21
g16
((lp178
tp179
Rp180
sg25
L4294967295L
sg26
L34L
sbaa(lp181
(L14L
L4294967295L
tp182
ag0
(g11
g2
Ntp183
Rp184
(dp185
g15
g16
((lp186
I11
atp187
Rp188
sg20
I00
sg21
g16
((lp189
tp190
Rp191
sg25
L4294967295L
sg26
L14L
sbaa(lp192
(L13L
L4294967295L
tp193
ag0
(g11
g2
Ntp194
Rp195
(dp196
g15
g16
((lp197
I10
atp198
Rp199
sg20
I00
sg21
g16
((lp200
tp201
Rp202
sg25
L4294967295L
sg26
L13L
sbaa(lp203
(L12L
L4294967295L
tp204
ag0
(g11
g2
Ntp205
Rp206
(dp207
g15
g16
((lp208
I9
atp209
Rp210
sg20
I00
sg21
g16
((lp211
tp212
Rp213
sg25
L4294967295L
sg26
L12L
sbaa(lp214
(L11L
L4294967295L
tp215
ag0
(g11
g2
Ntp216
Rp217
(dp218
g15
g16
((lp219
I8
atp220
Rp221
sg20
I00
sg21
g16
((lp222
tp223
Rp224
sg25
L4294967295L
sg26
L11L
sbaa(lp225
(L31L
L4294967295L
tp226
ag0
(g11
g2
Ntp227
Rp228
(dp229
g15
g16
((lp230
I4
atp231
Rp232
sg20
I00
sg21
g16
((lp233
tp234
Rp235
sg25
L4294967295L
sg26
L31L
sbaa(lp236
(L36L
L4294967295L
tp237
ag0
(g11
g2
Ntp238
Rp239
(dp240
g15
g16
((lp241
I14
atp242
Rp243
sg20
I00
sg21
g16
((lp244
tp245
Rp246
sg25
L4294967295L
sg26
L36L
sbaa(lp247
(L10L
L4294967295L
tp248
ag0
(g11
g2
Ntp249
Rp250
(dp251
g15
g16
((lp252
I7
atp253
Rp254
sg20
I00
sg21
g16
((lp255
tp256
Rp257
sg25
L4294967295L
sg26
L10L
sbaa(lp258
(L17L
L4294967295L
tp259
ag0
(g11
g2
Ntp260
Rp261
(dp262
g15
g16
((lp263
I14
atp264
Rp265
sg20
I00
sg21
g16
((lp266
tp267
Rp268
sg25
L4294967295L
sg26
L17L
sbaa(lp269
(L9L
L4294967295L
tp270
ag0
(g11
g2
Ntp271
Rp272
(dp273
g15
g16
((lp274
I6
atp275
Rp276
sg20
I00
sg21
g16
((lp277
tp278
Rp279
sg25
L4294967295L
sg26
L9L
sbaatp280
Rp281
sS'_multicast_routing_entries'
p282
g16
((lp283
g184
ag41
ag63
ag250
ag239
ag195
ag217
ag74
ag85
ag96
ag107
ag118
ag129
ag206
ag228
ag52
ag140
ag151
ag261
ag162
ag13
ag173
ag272
ag30
atp284
Rp285
sS'_y'
p286
I1
sS'_x'
p287
I1
sb.