ccopy_reg
_reconstructor
p0
(cpacman.model.routing_tables.multicast_routing_table
MulticastRoutingTable
p1
c__builtin__
object
p2
Ntp3
Rp4
(dp5
S'_multicast_routing_entries_by_key_combo_mask'
p6
ccollections
OrderedDict
p7
((lp8
(lp9
(L8L
L4294967295L
tp10
ag0
(cspinn_machine.multicast_routing_entry
MulticastRoutingEntry
p11
g2
Ntp12
Rp13
(dp14
S'_processor_ids'
p15
c__builtin__
set
p16
((lp17
tp18
Rp19
sS'_defaultable'
p20
I00
sS'_link_ids'
p21
g16
((lp22
I1
atp23
Rp24
sS'_mask'
p25
L4294967295L
sS'_key_mask_combo'
p26
L8L
sbaa(lp27
(L7L
L4294967295L
tp28
ag0
(g11
g2
Ntp29
Rp30
(dp31
g15
g16
((lp32
tp33
Rp34
sg20
I00
sg21
g16
((lp35
I1
atp36
Rp37
sg25
L4294967295L
sg26
L7L
sbaa(lp38
(L6L
L4294967295L
tp39
ag0
(g11
g2
Ntp40
Rp41
(dp42
g15
g16
((lp43
tp44
Rp45
sg20
I00
sg21
g16
((lp46
I1
atp47
Rp48
sg25
L4294967295L
sg26
L6L
sbaa(lp49
(L5L
L4294967295L
tp50
ag0
(g11
g2
Ntp51
Rp52
(dp53
g15
g16
((lp54
tp55
Rp56
sg20
I00
sg21
g16
((lp57
I1
atp58
Rp59
sg25
L4294967295L
sg26
L5L
sbaa(lp60
(L4L
L4294967295L
tp61
ag0
(g11
g2
Ntp62
Rp63
(dp64
g15
g16
((lp65
tp66
Rp67
sg20
I00
sg21
g16
((lp68
I1
atp69
Rp70
sg25
L4294967295L
sg26
L4L
sbaa(lp71
(L3L
L4294967295L
tp72
ag0
(g11
g2
Ntp73
Rp74
(dp75
g15
g16
((lp76
tp77
Rp78
sg20
I00
sg21
g16
((lp79
I0
atp80
Rp81
sg25
L4294967295L
sg26
L3L
sbaa(lp82
(L2L
L4294967295L
tp83
ag0
(g11
g2
Ntp84
Rp85
(dp86
g15
g16
((lp87
tp88
Rp89
sg20
I00
sg21
g16
((lp90
I0
atp91
Rp92
sg25
L4294967295L
sg26
L2L
sbaa(lp93
(L15L
L4294967295L
tp94
ag0
(g11
g2
Ntp95
Rp96
(dp97
g15
g16
((lp98
tp99
Rp100
sg20
I00
sg21
g16
((lp101
I1
atp102
Rp103
sg25
L4294967295L
sg26
L15L
sbaa(lp104
(L1L
L4294967295L
tp105
ag0
(g11
g2
Ntp106
Rp107
(dp108
g15
g16
((lp109
tp110
Rp111
sg20
I00
sg21
g16
((lp112
I0
atp113
Rp114
sg25
L4294967295L
sg26
L1L
sbaa(lp115
(L0L
L4294967295L
tp116
ag0
(g11
g2
Ntp117
Rp118
(dp119
g15
g16
((lp120
tp121
Rp122
sg20
I00
sg21
g16
((lp123
I0
atp124
Rp125
sg25
L4294967295L
sg26
L0L
sbaa(lp126
(L14L
L4294967295L
tp127
ag0
(g11
g2
Ntp128
Rp129
(dp130
g15
g16
((lp131
tp132
Rp133
sg20
I00
sg21
g16
((lp134
I1
atp135
Rp136
sg25
L4294967295L
sg26
L14L
sbaa(lp137
(L13L
L4294967295L
tp138
ag0
(g11
g2
Ntp139
Rp140
(dp141
g15
g16
((lp142
tp143
Rp144
sg20
I00
sg21
g16
((lp145
I1
atp146
Rp147
sg25
L4294967295L
sg26
L13L
sbaa(lp148
(L12L
L4294967295L
tp149
ag0
(g11
g2
Ntp150
Rp151
(dp152
g15
g16
((lp153
tp154
Rp155
sg20
I00
sg21
g16
((lp156
I1
atp157
Rp158
sg25
L4294967295L
sg26
L12L
sbaa(lp159
(L11L
L4294967295L
tp160
ag0
(g11
g2
Ntp161
Rp162
(dp163
g15
g16
((lp164
tp165
Rp166
sg20
I00
sg21
g16
((lp167
I1
atp168
Rp169
sg25
L4294967295L
sg26
L11L
sbaa(lp170
(L10L
L4294967295L
tp171
ag0
(g11
g2
Ntp172
Rp173
(dp174
g15
g16
((lp175
tp176
Rp177
sg20
I00
sg21
g16
((lp178
I1
atp179
Rp180
sg25
L4294967295L
sg26
L10L
sbaa(lp181
(L9L
L4294967295L
tp182
ag0
(g11
g2
Ntp183
Rp184
(dp185
g15
g16
((lp186
tp187
Rp188
sg20
I00
sg21
g16
((lp189
I1
atp190
Rp191
sg25
L4294967295L
sg26
L9L
sbaatp192
Rp193
sS'_multicast_routing_entries'
p194
g16
((lp195
g30
ag162
ag151
ag107
ag63
ag41
ag140
ag96
ag118
ag74
ag173
ag13
ag52
ag184
ag85
ag129
atp196
Rp197
sS'_y'
p198
I0
sS'_x'
p199
I0
sb.