ccopy_reg
_reconstructor
p0
(cpacman.model.routing_tables.multicast_routing_table
MulticastRoutingTable
p1
c__builtin__
object
p2
Ntp3
Rp4
(dp5
S'_multicast_routing_entries_by_key_combo_mask'
p6
ccollections
OrderedDict
p7
((lp8
(lp9
(L41L
L4294967295L
tp10
ag0
(cspinn_machine.multicast_routing_entry
MulticastRoutingEntry
p11
g2
Ntp12
Rp13
(dp14
S'_processor_ids'
p15
c__builtin__
set
p16
((lp17
I8
atp18
Rp19
sS'_defaultable'
p20
I00
sS'_link_ids'
p21
g16
((lp22
tp23
Rp24
sS'_mask'
p25
L4294967295L
sS'_key_mask_combo'
p26
L41L
sbaa(lp27
(L38L
L4294967295L
tp28
ag0
(g11
g2
Ntp29
Rp30
(dp31
g15
g16
((lp32
I2
atp33
Rp34
sg20
I00
sg21
g16
((lp35
tp36
Rp37
sg25
L4294967295L
sg26
L38L
sbaa(lp38
(L21L
L4294967295L
tp39
ag0
(g11
g2
Ntp40
Rp41
(dp42
g15
g16
((lp43
I2
atp44
Rp45
sg20
I00
sg21
g16
((lp46
tp47
Rp48
sg25
L4294967295L
sg26
L21L
sbaa(lp49
(L22L
L4294967295L
tp50
ag0
(g11
g2
Ntp51
Rp52
(dp53
g15
g16
((lp54
I3
atp55
Rp56
sg20
I00
sg21
g16
((lp57
tp58
Rp59
sg25
L4294967295L
sg26
L22L
sbaa(lp60
(L20L
L4294967295L
tp61
ag0
(g11
g2
Ntp62
Rp63
(dp64
g15
g16
((lp65
I1
atp66
Rp67
sg20
I00
sg21
g16
((lp68
tp69
Rp70
sg25
L4294967295L
sg26
L20L
sbaa(lp71
(L40L
L4294967295L
tp72
ag0
(g11
g2
Ntp73
Rp74
(dp75
g15
g16
((lp76
I6
atp77
Rp78
sg20
I00
sg21
g16
((lp79
tp80
Rp81
sg25
L4294967295L
sg26
L40L
sbaa(lp82
(L25L
L4294967295L
tp83
ag0
(g11
g2
Ntp84
Rp85
(dp86
g15
g16
((lp87
I6
atp88
Rp89
sg20
I00
sg21
g16
((lp90
tp91
Rp92
sg25
L4294967295L
sg26
L25L
sbaa(lp93
(L26L
L4294967295L
tp94
ag0
(g11
g2
Ntp95
Rp96
(dp97
g15
g16
((lp98
I7
atp99
Rp100
sg20
I00
sg21
g16
((lp101
tp102
Rp103
sg25
L4294967295L
sg26
L26L
sbaa(lp104
(L23L
L4294967295L
tp105
ag0
(g11
g2
Ntp106
Rp107
(dp108
g15
g16
((lp109
I4
atp110
Rp111
sg20
I00
sg21
g16
((lp112
tp113
Rp114
sg25
L4294967295L
sg26
L23L
sbaa(lp115
(L24L
L4294967295L
tp116
ag0
(g11
g2
Ntp117
Rp118
(dp119
g15
g16
((lp120
I5
atp121
Rp122
sg20
I00
sg21
g16
((lp123
tp124
Rp125
sg25
L4294967295L
sg26
L24L
sbaa(lp126
(L39L
L4294967295L
tp127
ag0
(g11
g2
Ntp128
Rp129
(dp130
g15
g16
((lp131
I4
atp132
Rp133
sg20
I00
sg21
g16
((lp134
tp135
Rp136
sg25
L4294967295L
sg26
L39L
sbaa(lp137
(L27L
L4294967295L
tp138
ag0
(g11
g2
Ntp139
Rp140
(dp141
g15
g16
((lp142
I8
atp143
Rp144
sg20
I00
sg21
g16
((lp145
tp146
Rp147
sg25
L4294967295L
sg26
L27L
sbaatp148
Rp149
sS'_multicast_routing_entries'
p150
g16
((lp151
g41
ag96
ag30
ag63
ag52
ag85
ag118
ag74
ag140
ag13
ag107
ag129
atp152
Rp153
sS'_y'
p154
I1
sS'_x'
p155
I0
sb.